target datalayout = "e-m:e-p270:32:32-p271:32:32-p272:64:64-i64:64-i128:128-f80:128-n8:16:32:64-S128"
target triple = "x86_64-pc-linux-gnu"

%"struct.faiss::FlatCodesDistanceComputer" = type { %"struct.faiss::DistanceComputer", ptr, i64 }
%"struct.faiss::DistanceComputer" = type { ptr }
%"struct.faiss::(anonymous namespace)::FlatIPDis" = type { %"struct.faiss::FlatCodesDistanceComputer", i64, i64, ptr, ptr, i64 }

; Function Attrs: mustprogress uwtable
define internal void @_ZN5faiss12_GLOBAL__N_19FlatIPDis17distances_batch_4EllllRfS2_S2_S2_(ptr noundef nonnull align 8 dereferenceable(64) %0, i64 noundef %1, i64 noundef %2, i64 noundef %3, i64 noundef %4, ptr noundef nonnull align 4 dereferenceable(4) %5, ptr noundef nonnull align 4 dereferenceable(4) %6, ptr noundef nonnull align 4 dereferenceable(4) %7, ptr noundef nonnull align 4 dereferenceable(4) %8) unnamed_addr #2 align 2 {
  %10 = alloca ptr, align 8
  %11 = alloca i64, align 8
  %12 = alloca i64, align 8
  %13 = alloca i64, align 8
  %14 = alloca i64, align 8
  %15 = alloca ptr, align 8
  %16 = alloca ptr, align 8
  %17 = alloca ptr, align 8
  %18 = alloca ptr, align 8
  %19 = alloca ptr, align 8
  %20 = alloca ptr, align 8
  %21 = alloca ptr, align 8
  %22 = alloca ptr, align 8
  %23 = alloca float, align 4
  %24 = alloca float, align 4
  %25 = alloca float, align 4
  %26 = alloca float, align 4
  store ptr %0, ptr %10, align 8, !tbaa !110
  store i64 %1, ptr %11, align 8, !tbaa !13
  store i64 %2, ptr %12, align 8, !tbaa !13
  store i64 %3, ptr %13, align 8, !tbaa !13
  store i64 %4, ptr %14, align 8, !tbaa !13
  store ptr %5, ptr %15, align 8, !tbaa !15
  store ptr %6, ptr %16, align 8, !tbaa !15
  store ptr %7, ptr %17, align 8, !tbaa !15
  store ptr %8, ptr %18, align 8, !tbaa !15
  %27 = load ptr, ptr %10, align 8
  %28 = getelementptr inbounds nuw %"struct.faiss::(anonymous namespace)::FlatIPDis", ptr %27, i32 0, i32 5
  %29 = load i64, ptr %28, align 8, !tbaa !117
  %30 = add i64 %29, 4
  store i64 %30, ptr %28, align 8, !tbaa !117
  call void @llvm.lifetime.start.p0(i64 8, ptr %19) #18
  %31 = getelementptr inbounds nuw %"struct.faiss::FlatCodesDistanceComputer", ptr %27, i32 0, i32 1
  %32 = load ptr, ptr %31, align 8, !tbaa !120
  %33 = load i64, ptr %11, align 8, !tbaa !13
  %34 = getelementptr inbounds nuw %"struct.faiss::FlatCodesDistanceComputer", ptr %27, i32 0, i32 2
  %35 = load i64, ptr %34, align 8, !tbaa !121
  %36 = mul i64 %33, %35
  %37 = getelementptr inbounds nuw i8, ptr %32, i64 %36
  store ptr %37, ptr %19, align 8, !tbaa !15
  call void @llvm.lifetime.start.p0(i64 8, ptr %20) #18
  %38 = getelementptr inbounds nuw %"struct.faiss::FlatCodesDistanceComputer", ptr %27, i32 0, i32 1
  %39 = load ptr, ptr %38, align 8, !tbaa !120
  %40 = load i64, ptr %12, align 8, !tbaa !13
  %41 = getelementptr inbounds nuw %"struct.faiss::FlatCodesDistanceComputer", ptr %27, i32 0, i32 2
  %42 = load i64, ptr %41, align 8, !tbaa !121
  %43 = mul i64 %40, %42
  %44 = getelementptr inbounds nuw i8, ptr %39, i64 %43
  store ptr %44, ptr %20, align 8, !tbaa !15
  call void @llvm.lifetime.start.p0(i64 8, ptr %21) #18
  %45 = getelementptr inbounds nuw %"struct.faiss::FlatCodesDistanceComputer", ptr %27, i32 0, i32 1
  %46 = load ptr, ptr %45, align 8, !tbaa !120
  %47 = load i64, ptr %13, align 8, !tbaa !13
  %48 = getelementptr inbounds nuw %"struct.faiss::FlatCodesDistanceComputer", ptr %27, i32 0, i32 2
  %49 = load i64, ptr %48, align 8, !tbaa !121
  %50 = mul i64 %47, %49
  %51 = getelementptr inbounds nuw i8, ptr %46, i64 %50
  store ptr %51, ptr %21, align 8, !tbaa !15
  call void @llvm.lifetime.start.p0(i64 8, ptr %22) #18
  %52 = getelementptr inbounds nuw %"struct.faiss::FlatCodesDistanceComputer", ptr %27, i32 0, i32 1
  %53 = load ptr, ptr %52, align 8, !tbaa !120
  %54 = load i64, ptr %14, align 8, !tbaa !13
  %55 = getelementptr inbounds nuw %"struct.faiss::FlatCodesDistanceComputer", ptr %27, i32 0, i32 2
  %56 = load i64, ptr %55, align 8, !tbaa !121
  %57 = mul i64 %54, %56
  %58 = getelementptr inbounds nuw i8, ptr %53, i64 %57
  store ptr %58, ptr %22, align 8, !tbaa !15
  call void @llvm.lifetime.start.p0(i64 4, ptr %23) #18
  store float 0.000000e+00, ptr %23, align 4, !tbaa !45
  call void @llvm.lifetime.start.p0(i64 4, ptr %24) #18
  store float 0.000000e+00, ptr %24, align 4, !tbaa !45
  call void @llvm.lifetime.start.p0(i64 4, ptr %25) #18
  store float 0.000000e+00, ptr %25, align 4, !tbaa !45
  call void @llvm.lifetime.start.p0(i64 4, ptr %26) #18
  store float 0.000000e+00, ptr %26, align 4, !tbaa !45
  %59 = getelementptr inbounds nuw %"struct.faiss::(anonymous namespace)::FlatIPDis", ptr %27, i32 0, i32 3
  %60 = load ptr, ptr %59, align 8, !tbaa !115
  %61 = load ptr, ptr %19, align 8, !tbaa !15
  %62 = load ptr, ptr %20, align 8, !tbaa !15
  %63 = load ptr, ptr %21, align 8, !tbaa !15
  %64 = load ptr, ptr %22, align 8, !tbaa !15
  %65 = getelementptr inbounds nuw %"struct.faiss::(anonymous namespace)::FlatIPDis", ptr %27, i32 0, i32 1
  %66 = load i64, ptr %65, align 8, !tbaa !112
  call void @_ZN5faiss26fvec_inner_product_batch_4EPKfS1_S1_S1_S1_mRfS2_S2_S2_(ptr noundef %60, ptr noundef %61, ptr noundef %62, ptr noundef %63, ptr noundef %64, i64 noundef %66, ptr noundef nonnull align 4 dereferenceable(4) %23, ptr noundef nonnull align 4 dereferenceable(4) %24, ptr noundef nonnull align 4 dereferenceable(4) %25, ptr noundef nonnull align 4 dereferenceable(4) %26)
  %67 = load float, ptr %23, align 4, !tbaa !45
  %68 = load ptr, ptr %15, align 8, !tbaa !15
  store float %67, ptr %68, align 4, !tbaa !45
  %69 = load float, ptr %24, align 4, !tbaa !45
  %70 = load ptr, ptr %16, align 8, !tbaa !15
  store float %69, ptr %70, align 4, !tbaa !45
  %71 = load float, ptr %25, align 4, !tbaa !45
  %72 = load ptr, ptr %17, align 8, !tbaa !15
  store float %71, ptr %72, align 4, !tbaa !45
  %73 = load float, ptr %26, align 4, !tbaa !45
  %74 = load ptr, ptr %18, align 8, !tbaa !15
  store float %73, ptr %74, align 4, !tbaa !45
  call void @llvm.lifetime.end.p0(i64 4, ptr %26) #18
  call void @llvm.lifetime.end.p0(i64 4, ptr %25) #18
  call void @llvm.lifetime.end.p0(i64 4, ptr %24) #18
  call void @llvm.lifetime.end.p0(i64 4, ptr %23) #18
  call void @llvm.lifetime.end.p0(i64 8, ptr %22) #18
  call void @llvm.lifetime.end.p0(i64 8, ptr %21) #18
  call void @llvm.lifetime.end.p0(i64 8, ptr %20) #18
  call void @llvm.lifetime.end.p0(i64 8, ptr %19) #18
  ret void
}