; Function Attrs: mustprogress uwtable
define internal void @_ZN5faiss12_GLOBAL__N_19FlatIPDis17distances_batch_4EllllRfS2_S2_S2_(ptr noundef nonnull align 8 captures(none) dereferenceable(64) %0, i64 noundef %1, i64 noundef %2, i64 noundef %3, i64 noundef %4, ptr noundef nonnull writeonly align 4 captures(none) dereferenceable(4) initializes((0, 4)) %5, ptr noundef nonnull writeonly align 4 captures(none) dereferenceable(4) initializes((0, 4)) %6, ptr noundef nonnull writeonly align 4 captures(none) dereferenceable(4) initializes((0, 4)) %7, ptr noundef nonnull writeonly align 4 captures(none) dereferenceable(4) initializes((0, 4)) %8) unnamed_addr #2 align 2 {
  %10 = alloca float, align 4
  %11 = alloca float, align 4
  %12 = alloca float, align 4
  %13 = alloca float, align 4
  %14 = getelementptr inbounds nuw i8, ptr %0, i64 56
  %15 = load i64, ptr %14, align 8, !tbaa !64
  %16 = add i64 %15, 4
  store i64 %16, ptr %14, align 8, !tbaa !64
  %17 = getelementptr inbounds nuw i8, ptr %0, i64 8
  %18 = load ptr, ptr %17, align 8, !tbaa !49
  %19 = getelementptr inbounds nuw i8, ptr %0, i64 16
  %20 = load i64, ptr %19, align 8, !tbaa !52
  %21 = mul i64 %20, %1
  %22 = getelementptr inbounds nuw i8, ptr %18, i64 %21
  %23 = mul i64 %20, %2
  %24 = getelementptr inbounds nuw i8, ptr %18, i64 %23
  %25 = mul i64 %20, %3
  %26 = getelementptr inbounds nuw i8, ptr %18, i64 %25
  %27 = mul i64 %20, %4
  %28 = getelementptr inbounds nuw i8, ptr %18, i64 %27
  call void @llvm.lifetime.start.p0(i64 4, ptr nonnull %10) #21
  store float 0.000000e+00, ptr %10, align 4, !tbaa !96
  call void @llvm.lifetime.start.p0(i64 4, ptr nonnull %11) #21
  store float 0.000000e+00, ptr %11, align 4, !tbaa !96
  call void @llvm.lifetime.start.p0(i64 4, ptr nonnull %12) #21
  store float 0.000000e+00, ptr %12, align 4, !tbaa !96
  call void @llvm.lifetime.start.p0(i64 4, ptr nonnull %13) #21
  store float 0.000000e+00, ptr %13, align 4, !tbaa !96
  %29 = getelementptr inbounds nuw i8, ptr %0, i64 40
  %30 = load ptr, ptr %29, align 8, !tbaa !62
  %31 = getelementptr inbounds nuw i8, ptr %0, i64 24
  %32 = load i64, ptr %31, align 8, !tbaa !59
  call void @_ZN5faiss26fvec_inner_product_batch_4EPKfS1_S1_S1_S1_mRfS2_S2_S2_(ptr noundef %30, ptr noundef %22, ptr noundef %24, ptr noundef %26, ptr noundef %28, i64 noundef %32, ptr noundef nonnull align 4 dereferenceable(4) %10, ptr noundef nonnull align 4 dereferenceable(4) %11, ptr noundef nonnull align 4 dereferenceable(4) %12, ptr noundef nonnull align 4 dereferenceable(4) %13)
  %33 = load float, ptr %10, align 4, !tbaa !96
  store float %33, ptr %5, align 4, !tbaa !96
  %34 = load float, ptr %11, align 4, !tbaa !96
  store float %34, ptr %6, align 4, !tbaa !96
  %35 = load float, ptr %12, align 4, !tbaa !96
  store float %35, ptr %7, align 4, !tbaa !96
  %36 = load float, ptr %13, align 4, !tbaa !96
  store float %36, ptr %8, align 4, !tbaa !96
  call void @llvm.lifetime.end.p0(i64 4, ptr nonnull %13) #21
  call void @llvm.lifetime.end.p0(i64 4, ptr nonnull %12) #21
  call void @llvm.lifetime.end.p0(i64 4, ptr nonnull %11) #21
  call void @llvm.lifetime.end.p0(i64 4, ptr nonnull %10) #21
  ret void
}